; Function Attrs: mustprogress nounwind uwtable
define hidden noundef ptr @_ZN13CodeInstaller15get_hotspot_regEiP8JVMCIEnv(i32 noundef %0, ptr noundef %1) local_unnamed_addr #0 align 2 {
  %3 = icmp slt i32 %0, 32
  br i1 %3, label %4, label %13

4:                                                ; preds = %2
  %or.cond.i = icmp ult i32 %0, 32
  %spec.select.i = select i1 %or.cond.i, i32 %0, i32 -1
  %5 = sext i32 %spec.select.i to i64
  %6 = getelementptr inbounds %"class.Register::RegisterImpl", ptr getelementptr inbounds (i8, ptr @all_RegisterImpls, i64 1), i64 %5
  %7 = ptrtoint ptr %6 to i64
  %8 = trunc i64 %7 to i32
  %9 = sub i32 %8, ptrtoint (ptr getelementptr inbounds (i8, ptr @all_RegisterImpls, i64 1) to i32)
  %10 = shl i32 %9, 1
  %11 = sext i32 %10 to i64
  %12 = getelementptr inbounds %class.VMRegImpl, ptr getelementptr inbounds (i8, ptr @all_VMRegs, i64 1), i64 %11
  br label %27

13:                                               ; preds = %2
  %14 = icmp ult i32 %0, 64
  br i1 %14, label %15, label %26

15:                                               ; preds = %13
  %16 = zext nneg i32 %0 to i64
  %17 = getelementptr %"class.XMMRegister::XMMRegisterImpl", ptr getelementptr inbounds (i8, ptr @all_XMMRegisterImpls, i64 1), i64 %16
  %18 = getelementptr i8, ptr %17, i64 -32
  %19 = ptrtoint ptr %18 to i64
  %20 = trunc i64 %19 to i32
  %21 = sub i32 %20, ptrtoint (ptr getelementptr inbounds (i8, ptr @all_XMMRegisterImpls, i64 1) to i32)
  %22 = shl i32 %21, 4
  %23 = sext i32 %22 to i64
  %24 = getelementptr %class.VMRegImpl, ptr getelementptr inbounds (i8, ptr @all_VMRegs, i64 1), i64 %23
  %25 = getelementptr i8, ptr %24, i64 80
  br label %27

26:                                               ; preds = %13
  tail call void (ptr, ptr, i32, ptr, ...) @_ZN8JVMCIEnv12fthrow_errorEPKciS1_z(ptr noundef nonnull align 8 dereferenceable(64) %1, ptr noundef nonnull @.str, i32 noundef 260, ptr noundef nonnull @.str.15, i32 noundef %0) #5
  br label %27

27:                                               ; preds = %26, %15, %4
  %.0 = phi ptr [ %12, %4 ], [ %25, %15 ], [ null, %26 ]
  ret ptr %.0
}